target datalayout = "e-m:e-p270:32:32-p271:32:32-p272:64:64-i64:64-i128:128-f80:128-n8:16:32:64-S128"
target triple = "x86_64-unknown-linux-gnu"

%struct.typeInterface = type { ptr, ptr, ptr, ptr, ptr }
%struct.sdsConfigData = type { ptr, ptr, ptr, i32 }
%struct.stringConfigData = type { ptr, ptr, ptr, i32 }
%struct.standardConfig = type { ptr, ptr, i32, %struct.typeInterface, %union.typeData, i32, ptr }
%union.typeData = type { %struct.numericConfigData }
%struct.numericConfigData = type { %union.anon, i32, i32, i64, i64, i64, ptr }
%union.anon = type { ptr }
%struct.sdshdr8 = type { i8, i8, i8, [0 x i8] }
%struct.sdshdr16 = type <{ i16, i16, i8, [0 x i8] }>
%struct.sdshdr32 = type <{ i32, i32, i8, [0 x i8] }>
%struct.sdshdr64 = type <{ i64, i64, i8, [0 x i8] }>

; Function Attrs: nounwind uwtable
define internal i64 @sdslen(ptr noundef %s) #0 {
entry:
  %retval = alloca i64, align 8
  %s.addr = alloca ptr, align 8
  %flags = alloca i8, align 1
  store ptr %s, ptr %s.addr, align 8
  %0 = load ptr, ptr %s.addr, align 8
  %arrayidx = getelementptr inbounds i8, ptr %0, i64 -1
  %1 = load i8, ptr %arrayidx, align 1
  store i8 %1, ptr %flags, align 1
  %2 = load i8, ptr %flags, align 1
  %conv = zext i8 %2 to i32
  %and = and i32 %conv, 7
  switch i32 %and, label %sw.epilog [
    i32 0, label %sw.bb
    i32 1, label %sw.bb3
    i32 2, label %sw.bb5
    i32 3, label %sw.bb9
    i32 4, label %sw.bb13
  ]

sw.bb:                                            ; preds = %entry
  %3 = load i8, ptr %flags, align 1
  %conv1 = zext i8 %3 to i32
  %shr = ashr i32 %conv1, 3
  %conv2 = sext i32 %shr to i64
  store i64 %conv2, ptr %retval, align 8
  br label %return

sw.bb3:                                           ; preds = %entry
  %4 = load ptr, ptr %s.addr, align 8
  %add.ptr = getelementptr inbounds i8, ptr %4, i64 -3
  %len = getelementptr inbounds %struct.sdshdr8, ptr %add.ptr, i32 0, i32 0
  %5 = load i8, ptr %len, align 1
  %conv4 = zext i8 %5 to i64
  store i64 %conv4, ptr %retval, align 8
  br label %return

sw.bb5:                                           ; preds = %entry
  %6 = load ptr, ptr %s.addr, align 8
  %add.ptr6 = getelementptr inbounds i8, ptr %6, i64 -5
  %len7 = getelementptr inbounds %struct.sdshdr16, ptr %add.ptr6, i32 0, i32 0
  %7 = load i16, ptr %len7, align 1
  %conv8 = zext i16 %7 to i64
  store i64 %conv8, ptr %retval, align 8
  br label %return

sw.bb9:                                           ; preds = %entry
  %8 = load ptr, ptr %s.addr, align 8
  %add.ptr10 = getelementptr inbounds i8, ptr %8, i64 -9
  %len11 = getelementptr inbounds %struct.sdshdr32, ptr %add.ptr10, i32 0, i32 0
  %9 = load i32, ptr %len11, align 1
  %conv12 = zext i32 %9 to i64
  store i64 %conv12, ptr %retval, align 8
  br label %return

sw.bb13:                                          ; preds = %entry
  %10 = load ptr, ptr %s.addr, align 8
  %add.ptr14 = getelementptr inbounds i8, ptr %10, i64 -17
  %len15 = getelementptr inbounds %struct.sdshdr64, ptr %add.ptr14, i32 0, i32 0
  %11 = load i64, ptr %len15, align 1
  store i64 %11, ptr %retval, align 8
  br label %return

sw.epilog:                                        ; preds = %entry
  store i64 0, ptr %retval, align 8
  br label %return

return:                                           ; preds = %sw.epilog, %sw.bb13, %sw.bb9, %sw.bb5, %sw.bb3, %sw.bb
  %12 = load i64, ptr %retval, align 8
  ret i64 %12
}

; Function Attrs: nounwind uwtable
define internal i32 @sdsConfigSet(ptr noundef %config, ptr noundef %argv, i32 noundef %argc, ptr noundef %err) #0 {
entry:
  %retval = alloca i32, align 4
  %config.addr = alloca ptr, align 8
  %argv.addr = alloca ptr, align 8
  %argc.addr = alloca i32, align 4
  %err.addr = alloca ptr, align 8
  %prev = alloca ptr, align 8
  %new = alloca ptr, align 8
  store ptr %config, ptr %config.addr, align 8
  store ptr %argv, ptr %argv.addr, align 8
  store i32 %argc, ptr %argc.addr, align 4
  store ptr %err, ptr %err.addr, align 8
  %0 = load ptr, ptr %config.addr, align 8
  %data = getelementptr inbounds %struct.standardConfig, ptr %0, i32 0, i32 4
  %is_valid_fn = getelementptr inbounds %struct.sdsConfigData, ptr %data, i32 0, i32 2
  %1 = load ptr, ptr %is_valid_fn, align 8
  %tobool = icmp ne ptr %1, null
  br i1 %tobool, label %land.lhs.true, label %if.end

land.lhs.true:                                    ; preds = %entry
  %2 = load ptr, ptr %config.addr, align 8
  %data1 = getelementptr inbounds %struct.standardConfig, ptr %2, i32 0, i32 4
  %is_valid_fn2 = getelementptr inbounds %struct.sdsConfigData, ptr %data1, i32 0, i32 2
  %3 = load ptr, ptr %is_valid_fn2, align 8
  %4 = load ptr, ptr %argv.addr, align 8
  %arrayidx = getelementptr inbounds ptr, ptr %4, i64 0
  %5 = load ptr, ptr %arrayidx, align 8
  %6 = load ptr, ptr %err.addr, align 8
  %call = call i32 %3(ptr noundef %5, ptr noundef %6)
  %tobool3 = icmp ne i32 %call, 0
  br i1 %tobool3, label %if.end, label %if.then

if.then:                                          ; preds = %land.lhs.true
  store i32 0, ptr %retval, align 4
  br label %return

if.end:                                           ; preds = %land.lhs.true, %entry
  %7 = load ptr, ptr %config.addr, align 8
  %flags = getelementptr inbounds %struct.standardConfig, ptr %7, i32 0, i32 2
  %8 = load i32, ptr %flags, align 8
  %conv = zext i32 %8 to i64
  %and = and i64 %conv, 256
  %tobool4 = icmp ne i64 %and, 0
  br i1 %tobool4, label %cond.true, label %cond.false

cond.true:                                        ; preds = %if.end
  %9 = load ptr, ptr %config.addr, align 8
  %privdata = getelementptr inbounds %struct.standardConfig, ptr %9, i32 0, i32 6
  %10 = load ptr, ptr %privdata, align 8
  %call5 = call ptr @getModuleStringConfig(ptr noundef %10)
  br label %cond.end

cond.false:                                       ; preds = %if.end
  %11 = load ptr, ptr %config.addr, align 8
  %data6 = getelementptr inbounds %struct.standardConfig, ptr %11, i32 0, i32 4
  %config7 = getelementptr inbounds %struct.sdsConfigData, ptr %data6, i32 0, i32 0
  %12 = load ptr, ptr %config7, align 8
  %13 = load ptr, ptr %12, align 8
  br label %cond.end

cond.end:                                         ; preds = %cond.false, %cond.true
  %cond = phi ptr [ %call5, %cond.true ], [ %13, %cond.false ]
  store ptr %cond, ptr %prev, align 8
  %14 = load ptr, ptr %config.addr, align 8
  %data8 = getelementptr inbounds %struct.standardConfig, ptr %14, i32 0, i32 4
  %convert_empty_to_null = getelementptr inbounds %struct.stringConfigData, ptr %data8, i32 0, i32 3
  %15 = load i32, ptr %convert_empty_to_null, align 8
  %tobool9 = icmp ne i32 %15, 0
  br i1 %tobool9, label %land.lhs.true10, label %cond.false15

land.lhs.true10:                                  ; preds = %cond.end
  %16 = load ptr, ptr %argv.addr, align 8
  %arrayidx11 = getelementptr inbounds ptr, ptr %16, i64 0
  %17 = load ptr, ptr %arrayidx11, align 8
  %call12 = call i64 @sdslen(ptr noundef %17)
  %cmp = icmp eq i64 %call12, 0
  br i1 %cmp, label %cond.true14, label %cond.false15

cond.true14:                                      ; preds = %land.lhs.true10
  br label %cond.end17

cond.false15:                                     ; preds = %land.lhs.true10, %cond.end
  %18 = load ptr, ptr %argv.addr, align 8
  %arrayidx16 = getelementptr inbounds ptr, ptr %18, i64 0
  %19 = load ptr, ptr %arrayidx16, align 8
  br label %cond.end17

cond.end17:                                       ; preds = %cond.false15, %cond.true14
  %cond18 = phi ptr [ null, %cond.true14 ], [ %19, %cond.false15 ]
  store ptr %cond18, ptr %new, align 8
  %20 = load ptr, ptr %new, align 8
  %21 = load ptr, ptr %prev, align 8
  %cmp19 = icmp ne ptr %20, %21
  br i1 %cmp19, label %land.lhs.true21, label %if.end47

land.lhs.true21:                                  ; preds = %cond.end17
  %22 = load ptr, ptr %new, align 8
  %cmp22 = icmp eq ptr %22, null
  br i1 %cmp22, label %if.then29, label %lor.lhs.false

lor.lhs.false:                                    ; preds = %land.lhs.true21
  %23 = load ptr, ptr %prev, align 8
  %cmp24 = icmp eq ptr %23, null
  br i1 %cmp24, label %if.then29, label %lor.lhs.false26

lor.lhs.false26:                                  ; preds = %lor.lhs.false
  %24 = load ptr, ptr %prev, align 8
  %25 = load ptr, ptr %new, align 8
  %call27 = call i32 @sdscmp(ptr noundef %24, ptr noundef %25)
  %tobool28 = icmp ne i32 %call27, 0
  br i1 %tobool28, label %if.then29, label %if.end47

if.then29:                                        ; preds = %lor.lhs.false26, %lor.lhs.false, %land.lhs.true21
  %26 = load ptr, ptr %prev, align 8
  call void @sdsfree(ptr noundef %26)
  %27 = load ptr, ptr %config.addr, align 8
  %flags30 = getelementptr inbounds %struct.standardConfig, ptr %27, i32 0, i32 2
  %28 = load i32, ptr %flags30, align 8
  %conv31 = zext i32 %28 to i64
  %and32 = and i64 %conv31, 256
  %tobool33 = icmp ne i64 %and32, 0
  br i1 %tobool33, label %if.then34, label %if.end37

if.then34:                                        ; preds = %if.then29
  %29 = load ptr, ptr %config.addr, align 8
  %privdata35 = getelementptr inbounds %struct.standardConfig, ptr %29, i32 0, i32 6
  %30 = load ptr, ptr %privdata35, align 8
  %31 = load ptr, ptr %new, align 8
  %32 = load ptr, ptr %err.addr, align 8
  %call36 = call i32 @setModuleStringConfig(ptr noundef %30, ptr noundef %31, ptr noundef %32)
  store i32 %call36, ptr %retval, align 4
  br label %return

if.end37:                                         ; preds = %if.then29
  %33 = load ptr, ptr %new, align 8
  %cmp38 = icmp ne ptr %33, null
  br i1 %cmp38, label %cond.true40, label %cond.false42

cond.true40:                                      ; preds = %if.end37
  %34 = load ptr, ptr %new, align 8
  %call41 = call ptr @sdsdup(ptr noundef %34)
  br label %cond.end43

cond.false42:                                     ; preds = %if.end37
  br label %cond.end43

cond.end43:                                       ; preds = %cond.false42, %cond.true40
  %cond44 = phi ptr [ %call41, %cond.true40 ], [ null, %cond.false42 ]
  %35 = load ptr, ptr %config.addr, align 8
  %data45 = getelementptr inbounds %struct.standardConfig, ptr %35, i32 0, i32 4
  %config46 = getelementptr inbounds %struct.sdsConfigData, ptr %data45, i32 0, i32 0
  %36 = load ptr, ptr %config46, align 8
  store ptr %cond44, ptr %36, align 8
  store i32 1, ptr %retval, align 4
  br label %return

if.end47:                                         ; preds = %lor.lhs.false26, %cond.end17
  %37 = load ptr, ptr %config.addr, align 8
  %flags48 = getelementptr inbounds %struct.standardConfig, ptr %37, i32 0, i32 2
  %38 = load i32, ptr %flags48, align 8
  %conv49 = zext i32 %38 to i64
  %and50 = and i64 %conv49, 256
  %tobool51 = icmp ne i64 %and50, 0
  br i1 %tobool51, label %land.lhs.true52, label %if.end55

land.lhs.true52:                                  ; preds = %if.end47
  %39 = load ptr, ptr %prev, align 8
  %tobool53 = icmp ne ptr %39, null
  br i1 %tobool53, label %if.then54, label %if.end55

if.then54:                                        ; preds = %land.lhs.true52
  %40 = load ptr, ptr %prev, align 8
  call void @sdsfree(ptr noundef %40)
  br label %if.end55

if.end55:                                         ; preds = %if.then54, %land.lhs.true52, %if.end47
  %41 = load ptr, ptr %config.addr, align 8
  %flags56 = getelementptr inbounds %struct.standardConfig, ptr %41, i32 0, i32 2
  %42 = load i32, ptr %flags56, align 8
  %conv57 = zext i32 %42 to i64
  %and58 = and i64 %conv57, 512
  %tobool59 = icmp ne i64 %and58, 0
  %cond60 = select i1 %tobool59, i32 1, i32 2
  store i32 %cond60, ptr %retval, align 4
  br label %return

return:                                           ; preds = %if.end55, %cond.end43, %if.then34, %if.then
  %43 = load i32, ptr %retval, align 4
  ret i32 %43
}