; Function Attrs: nounwind uwtable
define internal i32 @sdsConfigSet(ptr nocapture noundef readonly %config, ptr nocapture noundef readonly %argv, i32 %argc, ptr noundef %err) #2 {
entry:
  %data = getelementptr inbounds i8, ptr %config, i64 64
  %is_valid_fn = getelementptr inbounds i8, ptr %config, i64 80
  %0 = load ptr, ptr %is_valid_fn, align 8
  %tobool.not = icmp eq ptr %0, null
  br i1 %tobool.not, label %if.end, label %land.lhs.true

land.lhs.true:                                    ; preds = %entry
  %1 = load ptr, ptr %argv, align 8
  %call = tail call i32 %0(ptr noundef %1, ptr noundef %err) #24
  %tobool3.not = icmp eq i32 %call, 0
  br i1 %tobool3.not, label %return, label %if.end

if.end:                                           ; preds = %land.lhs.true, %entry
  %flags = getelementptr inbounds i8, ptr %config, i64 16
  %2 = load i32, ptr %flags, align 8
  %3 = and i32 %2, 256
  %tobool4.not = icmp eq i32 %3, 0
  br i1 %tobool4.not, label %cond.false, label %cond.true

cond.true:                                        ; preds = %if.end
  %privdata = getelementptr inbounds i8, ptr %config, i64 120
  %4 = load ptr, ptr %privdata, align 8
  %call5 = tail call ptr @getModuleStringConfig(ptr noundef %4) #24
  br label %cond.end

cond.false:                                       ; preds = %if.end
  %5 = load ptr, ptr %data, align 8
  %6 = load ptr, ptr %5, align 8
  br label %cond.end

cond.end:                                         ; preds = %cond.false, %cond.true
  %cond = phi ptr [ %call5, %cond.true ], [ %6, %cond.false ]
  %convert_empty_to_null = getelementptr inbounds i8, ptr %config, i64 88
  %7 = load i32, ptr %convert_empty_to_null, align 8
  %tobool9.not = icmp eq i32 %7, 0
  %.pre = load ptr, ptr %argv, align 8
  br i1 %tobool9.not, label %cond.false15, label %land.lhs.true10

land.lhs.true10:                                  ; preds = %cond.end
  %arrayidx.i = getelementptr inbounds i8, ptr %.pre, i64 -1
  %8 = load i8, ptr %arrayidx.i, align 1
  %conv.i = zext i8 %8 to i32
  %and.i = and i32 %conv.i, 7
  switch i32 %and.i, label %cond.end17 [
    i32 0, label %sw.bb.i
    i32 1, label %sw.bb3.i
    i32 2, label %sw.bb5.i
    i32 3, label %sw.bb9.i
    i32 4, label %sw.bb13.i
  ]

sw.bb.i:                                          ; preds = %land.lhs.true10
  %shr.i = lshr i32 %conv.i, 3
  %conv2.i = zext nneg i32 %shr.i to i64
  br label %sdslen.exit

sw.bb3.i:                                         ; preds = %land.lhs.true10
  %add.ptr.i = getelementptr inbounds i8, ptr %.pre, i64 -3
  %9 = load i8, ptr %add.ptr.i, align 1
  %conv4.i = zext i8 %9 to i64
  br label %sdslen.exit

sw.bb5.i:                                         ; preds = %land.lhs.true10
  %add.ptr6.i = getelementptr inbounds i8, ptr %.pre, i64 -5
  %10 = load i16, ptr %add.ptr6.i, align 1
  %conv8.i = zext i16 %10 to i64
  br label %sdslen.exit

sw.bb9.i:                                         ; preds = %land.lhs.true10
  %add.ptr10.i = getelementptr inbounds i8, ptr %.pre, i64 -9
  %11 = load i32, ptr %add.ptr10.i, align 1
  %conv12.i = zext i32 %11 to i64
  br label %sdslen.exit

sw.bb13.i:                                        ; preds = %land.lhs.true10
  %add.ptr14.i = getelementptr inbounds i8, ptr %.pre, i64 -17
  %12 = load i64, ptr %add.ptr14.i, align 1
  br label %sdslen.exit

sdslen.exit:                                      ; preds = %sw.bb.i, %sw.bb3.i, %sw.bb5.i, %sw.bb9.i, %sw.bb13.i
  %retval.0.i = phi i64 [ %12, %sw.bb13.i ], [ %conv12.i, %sw.bb9.i ], [ %conv8.i, %sw.bb5.i ], [ %conv4.i, %sw.bb3.i ], [ %conv2.i, %sw.bb.i ]
  %cmp = icmp eq i64 %retval.0.i, 0
  br i1 %cmp, label %cond.end17, label %cond.false15

cond.false15:                                     ; preds = %sdslen.exit, %cond.end
  br label %cond.end17

cond.end17:                                       ; preds = %land.lhs.true10, %sdslen.exit, %cond.false15
  %cond18 = phi ptr [ %.pre, %cond.false15 ], [ null, %sdslen.exit ], [ null, %land.lhs.true10 ]
  %cmp19.not = icmp eq ptr %cond18, %cond
  br i1 %cmp19.not, label %if.end47, label %land.lhs.true21

land.lhs.true21:                                  ; preds = %cond.end17
  %cmp22 = icmp eq ptr %cond18, null
  %cmp24 = icmp eq ptr %cond, null
  %or.cond = select i1 %cmp22, i1 true, i1 %cmp24
  br i1 %or.cond, label %if.then29, label %lor.lhs.false26

lor.lhs.false26:                                  ; preds = %land.lhs.true21
  %call27 = tail call i32 @sdscmp(ptr noundef nonnull %cond, ptr noundef nonnull %cond18) #24
  %tobool28.not = icmp eq i32 %call27, 0
  br i1 %tobool28.not, label %if.end47, label %if.then29

if.then29:                                        ; preds = %lor.lhs.false26, %land.lhs.true21
  tail call void @sdsfree(ptr noundef %cond) #24
  %13 = load i32, ptr %flags, align 8
  %14 = and i32 %13, 256
  %tobool33.not = icmp eq i32 %14, 0
  br i1 %tobool33.not, label %if.end37, label %if.then34

if.then34:                                        ; preds = %if.then29
  %privdata35 = getelementptr inbounds i8, ptr %config, i64 120
  %15 = load ptr, ptr %privdata35, align 8
  %call36 = tail call i32 @setModuleStringConfig(ptr noundef %15, ptr noundef %cond18, ptr noundef %err) #24
  br label %return

if.end37:                                         ; preds = %if.then29
  br i1 %cmp22, label %cond.end43, label %cond.true40

cond.true40:                                      ; preds = %if.end37
  %call41 = tail call ptr @sdsdup(ptr noundef nonnull %cond18) #24
  br label %cond.end43

cond.end43:                                       ; preds = %if.end37, %cond.true40
  %cond44 = phi ptr [ %call41, %cond.true40 ], [ null, %if.end37 ]
  %16 = load ptr, ptr %data, align 8
  store ptr %cond44, ptr %16, align 8
  br label %return

if.end47:                                         ; preds = %lor.lhs.false26, %cond.end17
  %17 = load i32, ptr %flags, align 8
  %18 = and i32 %17, 256
  %tobool51 = icmp ne i32 %18, 0
  %tobool53 = icmp ne ptr %cond, null
  %or.cond1 = select i1 %tobool51, i1 %tobool53, i1 false
  br i1 %or.cond1, label %if.then54, label %if.end55

if.then54:                                        ; preds = %if.end47
  tail call void @sdsfree(ptr noundef nonnull %cond) #24
  %.pre27 = load i32, ptr %flags, align 8
  br label %if.end55

if.end55:                                         ; preds = %if.then54, %if.end47
  %19 = phi i32 [ %.pre27, %if.then54 ], [ %17, %if.end47 ]
  %20 = and i32 %19, 512
  %tobool59.not = icmp eq i32 %20, 0
  %cond60 = select i1 %tobool59.not, i32 2, i32 1
  br label %return

return:                                           ; preds = %land.lhs.true, %if.end55, %cond.end43, %if.then34
  %retval.0 = phi i32 [ %call36, %if.then34 ], [ 1, %cond.end43 ], [ %cond60, %if.end55 ], [ 0, %land.lhs.true ]
  ret i32 %retval.0
}